Certificate:
    Data:
        Version: 3 (0x2)
        Serial Number: 4096 (0x1000)
    Signature Algorithm: sha256WithRSAEncryption
        Issuer: C=US, ST=NY, L=SYR, O=Internet Widgits Pty Ltd, CN=YixiangCA
        Validity
            Not Before: Apr 25 03:48:23 2019 GMT
            Not After : Apr 24 03:48:23 2020 GMT
        Subject: C=US, ST=NY, L=SYR, O=Internet Widgits Pty Ltd, CN=vpnlabserver.com
        Subject Public Key Info:
            Public Key Algorithm: rsaEncryption
                Public-Key: (1024 bit)
                Modulus:
                    00:c0:cc:3f:56:ea:85:7a:ca:53:f6:d2:cc:0d:39:
                    df:04:ed:0c:e0:1d:f3:08:55:e2:7e:d8:a3:ca:3e:
                    dd:33:8c:d5:e8:2c:7b:c9:ab:85:f8:db:85:d4:da:
                    a7:68:1d:a0:40:89:ca:56:9a:e8:71:1c:9e:0f:66:
                    bd:ee:dd:88:2c:7a:90:6d:ab:26:00:6e:db:5b:3d:
                    6d:0f:e2:e5:46:35:ba:7c:c9:86:2c:be:c6:42:28:
                    5b:ee:b0:a8:f2:36:6c:04:52:21:24:3e:b5:f1:2f:
                    05:4c:09:0b:8c:e7:85:6c:29:17:d7:3f:fa:83:85:
                    8d:48:97:28:5c:f0:18:b8:01
                Exponent: 65537 (0x10001)
        X509v3 extensions:
            X509v3 Basic Constraints: 
                CA:FALSE
            Netscape Comment: 
                OpenSSL Generated Certificate
            X509v3 Subject Key Identifier: 
                B6:E7:73:F1:CD:19:C4:4D:49:E3:2B:7F:BE:7F:09:17:E9:CF:22:C8
            X509v3 Authority Key Identifier: 
                keyid:0E:EE:0F:33:CF:C1:FF:77:DA:C0:8A:2F:36:EE:42:0C:AF:19:9E:3D

    Signature Algorithm: sha256WithRSAEncryption
         3a:29:b3:c0:b8:2d:80:49:da:67:a1:17:76:91:46:95:37:12:
         f2:2e:76:71:6c:93:78:13:97:cc:c5:2f:2b:94:35:c4:45:60:
         73:19:0f:6a:97:1d:bb:67:1f:8d:02:a7:0d:9a:30:bb:97:f7:
         21:e8:25:12:69:ce:19:13:02:79:7e:95:42:4b:3b:91:fd:e2:
         61:dd:13:35:cf:69:aa:ef:50:b5:ac:bd:76:54:c1:2d:66:7e:
         c7:83:0f:dc:87:55:1a:40:5d:85:69:dd:61:66:e7:b6:23:70:
         0b:02:19:35:ba:13:e2:01:c2:05:e8:9b:d6:d5:58:91:b9:67:
         8d:7b
-----BEGIN CERTIFICATE-----
MIICtzCCAiCgAwIBAgICEAAwDQYJKoZIhvcNAQELBQAwXzELMAkGA1UEBhMCVVMx
CzAJBgNVBAgMAk5ZMQwwCgYDVQQHDANTWVIxITAfBgNVBAoMGEludGVybmV0IFdp
ZGdpdHMgUHR5IEx0ZDESMBAGA1UEAwwJWWl4aWFuZ0NBMB4XDTE5MDQyNTAzNDgy
M1oXDTIwMDQyNDAzNDgyM1owZjELMAkGA1UEBhMCVVMxCzAJBgNVBAgMAk5ZMQww
CgYDVQQHDANTWVIxITAfBgNVBAoMGEludGVybmV0IFdpZGdpdHMgUHR5IEx0ZDEZ
MBcGA1UEAwwQdnBubGFic2VydmVyLmNvbTCBnzANBgkqhkiG9w0BAQEFAAOBjQAw
gYkCgYEAwMw/VuqFespT9tLMDTnfBO0M4B3zCFXiftijyj7dM4zV6Cx7yauF+NuF
1NqnaB2gQInKVprocRyeD2a97t2ILHqQbasmAG7bWz1tD+LlRjW6fMmGLL7GQihb
7rCo8jZsBFIhJD618S8FTAkLjOeFbCkX1z/6g4WNSJcoXPAYuAECAwEAAaN7MHkw
CQYDVR0TBAIwADAsBglghkgBhvhCAQ0EHxYdT3BlblNTTCBHZW5lcmF0ZWQgQ2Vy
dGlmaWNhdGUwHQYDVR0OBBYEFLbnc/HNGcRNSeMrf75/CRfpzyLIMB8GA1UdIwQY
MBaAFA7uDzPPwf932sCKLzbuQgyvGZ49MA0GCSqGSIb3DQEBCwUAA4GBADops8C4
LYBJ2mehF3aRRpU3EvIudnFsk3gTl8zFLyuUNcRFYHMZD2qXHbtnH40Cpw2aMLuX
9yHoJRJpzhkTAnl+lUJLO5H94mHdEzXPaarvULWsvXZUwS1mfseDD9yHVRpAXYVp
3WFm57YjcAsCGTW6E+IBwgXom9bVWJG5Z417
-----END CERTIFICATE-----
