Certificate:
    Data:
        Version: 3 (0x2)
        Serial Number: 6549 (0x1995)
    Signature Algorithm: sha256WithRSAEncryption
        Issuer: C=CN, ST=LN, L=DL, O=Yixiang, OU=Zuo, CN=Yixiang's CA
        Validity
            Not Before: Apr 28 20:45:17 2019 GMT
            Not After : Apr 27 20:45:17 2020 GMT
        Subject: C=US, ST=NY, L=SYR, O=644, OU=VPN, CN=zuovpnserver.com
        Subject Public Key Info:
            Public Key Algorithm: rsaEncryption
                Public-Key: (1024 bit)
                Modulus:
                    00:d5:d6:48:6b:62:86:59:39:0c:5f:a1:49:24:95:
                    52:a4:9e:eb:49:31:09:55:d6:b9:41:28:a8:d2:44:
                    9c:d1:44:31:63:53:00:6d:23:73:56:15:3a:d3:eb:
                    2a:63:87:7e:b6:7c:79:2f:16:e5:b6:9d:a5:56:b1:
                    07:6c:b3:79:74:9c:7c:fd:7d:69:7a:88:5c:27:95:
                    c6:62:ba:57:af:d2:03:b3:c1:ce:4c:8c:05:f1:8d:
                    6e:40:37:40:12:57:fe:47:4b:43:7e:0b:4d:b0:f8:
                    36:80:ba:95:db:8b:bd:62:13:6b:b6:eb:d4:9f:24:
                    df:ef:c0:31:3b:da:8e:36:eb
                Exponent: 65537 (0x10001)
        X509v3 extensions:
            X509v3 Basic Constraints: 
                CA:FALSE
            Netscape Comment: 
                OpenSSL Generated Certificate
            X509v3 Subject Key Identifier: 
                A0:74:B7:D4:6E:39:DD:2C:F8:B0:0D:79:30:3C:E3:39:0D:FD:74:5D
            X509v3 Authority Key Identifier: 
                keyid:57:27:25:78:A6:AE:9E:46:AF:80:5D:6B:59:99:3A:6B:80:40:00:D0

    Signature Algorithm: sha256WithRSAEncryption
         55:2c:26:3d:d9:d9:b8:4c:f4:9a:db:91:98:04:60:79:45:62:
         c6:86:0f:68:5b:73:ce:38:73:4d:14:07:6e:5c:9a:bd:10:65:
         c3:55:4d:d1:cd:96:bc:e3:ea:f0:e7:78:97:fa:ee:ca:d3:55:
         24:28:30:21:17:fe:e6:7f:db:be:e3:22:2a:03:f7:2d:a3:e9:
         a6:be:c8:8b:e3:05:fc:e6:6b:58:39:4b:2a:c6:26:71:d3:82:
         87:de:63:e3:68:52:37:84:87:14:da:7d:74:ce:af:59:11:df:
         8a:7a:e6:13:4d:87:ff:f6:33:00:14:65:fb:21:83:eb:39:0b:
         20:81
-----BEGIN CERTIFICATE-----
MIICrzCCAhigAwIBAgICGZUwDQYJKoZIhvcNAQELBQAwXjELMAkGA1UEBhMCQ04x
CzAJBgNVBAgMAkxOMQswCQYDVQQHDAJETDEQMA4GA1UECgwHWWl4aWFuZzEMMAoG
A1UECwwDWnVvMRUwEwYDVQQDDAxZaXhpYW5nJ3MgQ0EwHhcNMTkwNDI4MjA0NTE3
WhcNMjAwNDI3MjA0NTE3WjBfMQswCQYDVQQGEwJVUzELMAkGA1UECAwCTlkxDDAK
BgNVBAcMA1NZUjEMMAoGA1UECgwDNjQ0MQwwCgYDVQQLDANWUE4xGTAXBgNVBAMM
EHp1b3ZwbnNlcnZlci5jb20wgZ8wDQYJKoZIhvcNAQEBBQADgY0AMIGJAoGBANXW
SGtihlk5DF+hSSSVUqSe60kxCVXWuUEoqNJEnNFEMWNTAG0jc1YVOtPrKmOHfrZ8
eS8W5badpVaxB2yzeXScfP19aXqIXCeVxmK6V6/SA7PBzkyMBfGNbkA3QBJX/kdL
Q34LTbD4NoC6lduLvWITa7br1J8k3+/AMTvajjbrAgMBAAGjezB5MAkGA1UdEwQC
MAAwLAYJYIZIAYb4QgENBB8WHU9wZW5TU0wgR2VuZXJhdGVkIENlcnRpZmljYXRl
MB0GA1UdDgQWBBSgdLfUbjndLPiwDXkwPOM5Df10XTAfBgNVHSMEGDAWgBRXJyV4
pq6eRq+AXWtZmTprgEAA0DANBgkqhkiG9w0BAQsFAAOBgQBVLCY92dm4TPSa25GY
BGB5RWLGhg9oW3POOHNNFAduXJq9EGXDVU3RzZa84+rw53iX+u7K01UkKDAhF/7m
f9u+4yIqA/cto+mmvsiL4wX85mtYOUsqxiZx04KH3mPjaFI3hIcU2n10zq9ZEd+K
euYTTYf/9jMAFGX7IYPrOQsggQ==
-----END CERTIFICATE-----
